target datalayout = "e-m:e-p270:32:32-p271:32:32-p272:64:64-i64:64-i128:128-f80:128-n8:16:32:64-S128"
target triple = "x86_64-unknown-linux-gnu"

; Function Attrs: noreturn nounwind uwtable
define linkonce_odr hidden void @__clang_call_terminate(ptr noundef %0) #4 comdat {
  %2 = call ptr @__cxa_begin_catch(ptr %0) #10
  call void @_ZSt9terminatev() #12
  unreachable
}

; Function Attrs: mustprogress nounwind uwtable
define linkonce_odr noundef i64 @_ZN5folly4hash17fnv64_append_byteEmh(i64 noundef %hash, i8 noundef zeroext %c) #1 comdat {
entry:
  %hash.addr = alloca i64, align 8
  %c.addr = alloca i8, align 1
  store i64 %hash, ptr %hash.addr, align 8
  store i8 %c, ptr %c.addr, align 1
  %0 = load i64, ptr %hash.addr, align 8
  %1 = load i64, ptr %hash.addr, align 8
  %shl = shl i64 %1, 1
  %add = add i64 %0, %shl
  %2 = load i64, ptr %hash.addr, align 8
  %shl1 = shl i64 %2, 4
  %add2 = add i64 %add, %shl1
  %3 = load i64, ptr %hash.addr, align 8
  %shl3 = shl i64 %3, 5
  %add4 = add i64 %add2, %shl3
  %4 = load i64, ptr %hash.addr, align 8
  %shl5 = shl i64 %4, 7
  %add6 = add i64 %add4, %shl5
  %5 = load i64, ptr %hash.addr, align 8
  %shl7 = shl i64 %5, 8
  %add8 = add i64 %add6, %shl7
  %6 = load i64, ptr %hash.addr, align 8
  %shl9 = shl i64 %6, 40
  %add10 = add i64 %add8, %shl9
  store i64 %add10, ptr %hash.addr, align 8
  %7 = load i8, ptr %c.addr, align 1
  %conv = sext i8 %7 to i64
  %8 = load i64, ptr %hash.addr, align 8
  %xor = xor i64 %8, %conv
  store i64 %xor, ptr %hash.addr, align 8
  %9 = load i64, ptr %hash.addr, align 8
  ret i64 %9
}

; Function Attrs: mustprogress nounwind uwtable
define linkonce_odr noundef i64 @_ZN5folly4hash9fnv64_bufIcTnNSt9enable_ifIXsr6detailE18is_hashable_byte_vIT_EEiE4typeELi0EEEmPKS3_mm(ptr noundef %buf, i64 noundef %n, i64 noundef %hash) #1 comdat personality ptr @__gxx_personality_v0 {
entry:
  %buf.addr = alloca ptr, align 8
  %n.addr = alloca i64, align 8
  %hash.addr = alloca i64, align 8
  %i = alloca i64, align 8
  store ptr %buf, ptr %buf.addr, align 8
  store i64 %n, ptr %n.addr, align 8
  store i64 %hash, ptr %hash.addr, align 8
  store i64 0, ptr %i, align 8
  br label %for.cond

for.cond:                                         ; preds = %for.inc, %entry
  %0 = load i64, ptr %i, align 8
  %1 = load i64, ptr %n.addr, align 8
  %cmp = icmp ult i64 %0, %1
  br i1 %cmp, label %for.body, label %for.end

for.body:                                         ; preds = %for.cond
  %2 = load i64, ptr %hash.addr, align 8
  %3 = load ptr, ptr %buf.addr, align 8
  %4 = load i64, ptr %i, align 8
  %arrayidx = getelementptr inbounds i8, ptr %3, i64 %4
  %5 = load i8, ptr %arrayidx, align 1
  %call = invoke noundef i64 @_ZN5folly4hash17fnv64_append_byteEmh(i64 noundef %2, i8 noundef zeroext %5)
          to label %invoke.cont unwind label %terminate.lpad

invoke.cont:                                      ; preds = %for.body
  store i64 %call, ptr %hash.addr, align 8
  br label %for.inc

for.inc:                                          ; preds = %invoke.cont
  %6 = load i64, ptr %i, align 8
  %inc = add i64 %6, 1
  store i64 %inc, ptr %i, align 8
  br label %for.cond, !llvm.loop !9

for.end:                                          ; preds = %for.cond
  %7 = load i64, ptr %hash.addr, align 8
  ret i64 %7

terminate.lpad:                                   ; preds = %for.body
  %8 = landingpad { ptr, i32 }
          catch ptr null
  %9 = extractvalue { ptr, i32 } %8, 0
  call void @__clang_call_terminate(ptr %9) #12
  unreachable
}

; Function Attrs: mustprogress nounwind uwtable
define noundef i64 @_ZNK8proxygen14RendezvousHash11computeHashEPKcm(ptr noundef nonnull align 8 dereferenceable(32) %this, ptr noundef %data, i64 noundef %len) #1 align 2 {
entry:
  %this.addr = alloca ptr, align 8
  %data.addr = alloca ptr, align 8
  %len.addr = alloca i64, align 8
  store ptr %this, ptr %this.addr, align 8
  store ptr %data, ptr %data.addr, align 8
  store i64 %len, ptr %len.addr, align 8
  %0 = load ptr, ptr %data.addr, align 8
  %1 = load i64, ptr %len.addr, align 8
  %call = call noundef i64 @_ZN5folly4hash9fnv64_bufIcTnNSt9enable_ifIXsr6detailE18is_hashable_byte_vIT_EEiE4typeELi0EEEmPKS3_mm(ptr noundef %0, i64 noundef %1, i64 noundef -3750763034362895579) #10
  ret i64 %call
}