; Function Attrs: mustprogress nofree norecurse nosync nounwind willreturn memory(argmem: read) uwtable
define noundef i64 @_ZNK8proxygen14RendezvousHash11computeHashEPKcm(ptr nocapture noundef nonnull readnone align 8 dereferenceable(32) %this, ptr nocapture noundef readonly %data, i64 noundef %len) local_unnamed_addr #2 align 2 personality ptr @__gxx_personality_v0 {
entry:
  %cmp4.not.i = icmp eq i64 %len, 0
  br i1 %cmp4.not.i, label %_ZN5folly4hash9fnv64_bufIcTnNSt9enable_ifIXsr6detailE18is_hashable_byte_vIT_EEiE4typeELi0EEEmPKS3_mm.exit, label %for.body.i

for.body.i:                                       ; preds = %entry, %for.body.i
  %i.06.i = phi i64 [ %inc.i, %for.body.i ], [ 0, %entry ]
  %hash.addr.05.i = phi i64 [ %xor.i.i, %for.body.i ], [ -3750763034362895579, %entry ]
  %arrayidx.i = getelementptr inbounds i8, ptr %data, i64 %i.06.i
  %0 = load i8, ptr %arrayidx.i, align 1
  %add10.i.i = mul i64 %hash.addr.05.i, 1099511628211
  %conv.i.i = sext i8 %0 to i64
  %xor.i.i = xor i64 %add10.i.i, %conv.i.i
  %inc.i = add nuw i64 %i.06.i, 1
  %exitcond.not.i = icmp eq i64 %inc.i, %len
  br i1 %exitcond.not.i, label %_ZN5folly4hash9fnv64_bufIcTnNSt9enable_ifIXsr6detailE18is_hashable_byte_vIT_EEiE4typeELi0EEEmPKS3_mm.exit, label %for.body.i, !llvm.loop !4

_ZN5folly4hash9fnv64_bufIcTnNSt9enable_ifIXsr6detailE18is_hashable_byte_vIT_EEiE4typeELi0EEEmPKS3_mm.exit: ; preds = %for.body.i, %entry
  %hash.addr.0.lcssa.i = phi i64 [ -3750763034362895579, %entry ], [ %xor.i.i, %for.body.i ]
  ret i64 %hash.addr.0.lcssa.i
}